; Function Attrs: nounwind uwtable
define hidden void @mi_free_size(ptr noundef %0, i64 %1) #3 {
  %3 = ptrtoint ptr %0 to i64
  %4 = add i64 %3, -1
  %5 = and i64 %4, -4194304
  %6 = inttoptr i64 %5 to ptr
  %7 = icmp slt i64 %4, 4194304
  %8 = icmp eq i64 %5, 0
  %9 = or i1 %7, %8
  br i1 %9, label %mi_free.exit, label %10, !prof !17

10:                                               ; preds = %2
  %11 = tail call ptr @llvm.thread.pointer()
  %12 = ptrtoint ptr %11 to i64
  %13 = getelementptr inbounds nuw i8, ptr %6, i64 136
  %14 = load atomic i64, ptr %13 monotonic, align 8
  %15 = icmp eq i64 %14, %12
  %16 = sub i64 %3, %5
  %17 = getelementptr inbounds nuw i8, ptr %6, i64 144
  %18 = load i64, ptr %17, align 16, !tbaa !22
  %19 = lshr i64 %16, %18
  %20 = getelementptr inbounds nuw i8, ptr %6, i64 160
  %21 = getelementptr inbounds nuw [1 x %struct.mi_page_s], ptr %20, i64 0, i64 %19
  br i1 %15, label %22, label %36, !prof !8

22:                                               ; preds = %10
  %23 = getelementptr inbounds nuw i8, ptr %21, i64 6
  %24 = load i8, ptr %23, align 2, !tbaa !29
  %25 = icmp eq i8 %24, 0
  br i1 %25, label %26, label %35, !prof !8

26:                                               ; preds = %22
  %27 = getelementptr inbounds nuw i8, ptr %21, i64 16
  %28 = load ptr, ptr %27, align 16, !tbaa !30
  %29 = ptrtoint ptr %28 to i64
  store i64 %29, ptr %0, align 8, !tbaa !18
  store ptr %0, ptr %27, align 16, !tbaa !30
  %30 = getelementptr inbounds nuw i8, ptr %21, i64 24
  %31 = load i16, ptr %30, align 8, !tbaa !20
  %32 = add i16 %31, -1
  store i16 %32, ptr %30, align 8, !tbaa !20
  %33 = icmp eq i16 %32, 0
  br i1 %33, label %34, label %mi_free.exit, !prof !17

34:                                               ; preds = %26
  tail call void @_mi_page_retire(ptr noundef nonnull %21) #19
  br label %mi_free.exit

35:                                               ; preds = %22
  tail call fastcc void @mi_free_generic_local(ptr noundef nonnull %21, ptr noundef %0) #20
  br label %mi_free.exit

36:                                               ; preds = %10
  tail call fastcc void @mi_free_generic_mt(ptr noundef nonnull %21, ptr noundef nonnull %6, ptr noundef %0) #20
  br label %mi_free.exit

mi_free.exit:                                     ; preds = %2, %26, %34, %35, %36
  ret void
}